ccopy_reg
_reconstructor
p1
(csklearn.feature_extraction.text
TfidfVectorizer
p2
c__builtin__
object
p3
NtRp4
(dp5
S'decode_error'
p6
S'ignore'
p7
sS'lowercase'
p8
I01
sS'stop_words'
p9
S'english'
p10
sS'vocabulary'
p11
NsS'tokenizer'
p12
c__main__
tokenize
p13
sS'encoding'
p14
Vutf-8
p15
sS'token_pattern'
p16
V(?u)\u005cb\u005cw\u005cw+\u005cb
p17
sS'max_df'
p18
F1
sS'analyzer'
p19
Vword
p20
sS'binary'
p21
I00
sS'ngram_range'
p22
(I1
I1
tp23
sS'preprocessor'
p24
NsS'min_df'
p25
I1
sS'max_features'
p26
NsS'input'
p27
Vcontent
p28
sS'_tfidf'
p29
g1
(csklearn.feature_extraction.text
TfidfTransformer
p30
g3
NtRp31
(dp32
S'use_idf'
p33
I01
sS'smooth_idf'
p34
I01
sS'sublinear_tf'
p35
I00
sS'norm'
p36
Vl2
p37
sbsS'dtype'
p38
cnumpy
int64
p39
sS'strip_accents'
p40
Nsb.